---
triple:          'arm64-apple-darwin'
binary-path:     '/Users/youngki/study/Ailab/CPP/7.ExelProject/main'
relocations:
  - { offsetInCU: 0x508C, offset: 0x508C, size: 0x8, addend: 0x0, symName: __ZNSt3__14endlB8ue170006IcNS_11char_traitsIcEEEERNS_13basic_ostreamIT_T0_EES7_, symObjAddr: 0x544, symBinAddr: 0x1000044C8, symSize: 0x58 }
  - { offsetInCU: 0x50D7, offset: 0x50D7, size: 0x8, addend: 0x0, symName: __ZNSt3__118__constexpr_strlenB8ue170006EPKc, symObjAddr: 0x9B8, symBinAddr: 0x10000493C, symSize: 0x24 }
  - { offsetInCU: 0x5103, offset: 0x5103, size: 0x8, addend: 0x0, symName: __ZNSt3__19use_facetB8ue170006INS_5ctypeIcEEEERKT_RKNS_6localeE, symObjAddr: 0xA6C, symBinAddr: 0x1000049F0, symSize: 0x2C }
  - { offsetInCU: 0x7B82, offset: 0x7B82, size: 0x8, addend: 0x0, symName: _main, symObjAddr: 0x0, symBinAddr: 0x100003F84, symSize: 0x378 }
  - { offsetInCU: 0x7CFF, offset: 0x7CFF, size: 0x8, addend: 0x0, symName: __ZNSt3__114basic_ofstreamIcNS_11char_traitsIcEEEC1EPKcj, symObjAddr: 0x378, symBinAddr: 0x1000042FC, symSize: 0x16C }
  - { offsetInCU: 0x7D4C, offset: 0x7D4C, size: 0x8, addend: 0x0, symName: __ZNSt3__112basic_stringIcNS_11char_traitsIcEENS_9allocatorIcEEEC1B8ue170006ILi0EEEPKc, symObjAddr: 0x4E4, symBinAddr: 0x100004468, symSize: 0x34 }
  - { offsetInCU: 0x7D89, offset: 0x7D89, size: 0x8, addend: 0x0, symName: __ZNSt3__113basic_ostreamIcNS_11char_traitsIcEEElsB8ue170006EPFRS3_S4_E, symObjAddr: 0x518, symBinAddr: 0x10000449C, symSize: 0x2C }
  - { offsetInCU: 0x7DC0, offset: 0x7DC0, size: 0x8, addend: 0x0, symName: __ZNSt3__114basic_ofstreamIcNS_11char_traitsIcEEED1Ev, symObjAddr: 0x59C, symBinAddr: 0x100004520, symSize: 0x40 }
  - { offsetInCU: 0x8068, offset: 0x8068, size: 0x8, addend: 0x0, symName: __ZN7MyExcel8TxtTableD1Ev, symObjAddr: 0x5DC, symBinAddr: 0x100004560, symSize: 0x2C }
  - { offsetInCU: 0x8092, offset: 0x8092, size: 0x8, addend: 0x0, symName: __ZNSt3__114basic_ofstreamIcNS_11char_traitsIcEEED2Ev, symObjAddr: 0x608, symBinAddr: 0x10000458C, symSize: 0x64 }
  - { offsetInCU: 0x80C9, offset: 0x80C9, size: 0x8, addend: 0x0, symName: __ZTv0_n24_NSt3__114basic_ofstreamIcNS_11char_traitsIcEEED1Ev, symObjAddr: 0x66C, symBinAddr: 0x1000045F0, symSize: 0x28 }
  - { offsetInCU: 0x80DF, offset: 0x80DF, size: 0x8, addend: 0x0, symName: __ZN7MyExcel8TxtTableD2Ev, symObjAddr: 0x694, symBinAddr: 0x100004618, symSize: 0x2C }
  - { offsetInCU: 0x8109, offset: 0x8109, size: 0x8, addend: 0x0, symName: __ZNSt3__19basic_iosIcNS_11char_traitsIcEEEC2B8ue170006Ev, symObjAddr: 0x6C0, symBinAddr: 0x100004644, symSize: 0x44 }
  - { offsetInCU: 0x8131, offset: 0x8131, size: 0x8, addend: 0x0, symName: __ZNSt3__113basic_ostreamIcNS_11char_traitsIcEEEC2B8ue170006EPNS_15basic_streambufIcS2_EE, symObjAddr: 0x704, symBinAddr: 0x100004688, symSize: 0x60 }
  - { offsetInCU: 0x8173, offset: 0x8173, size: 0x8, addend: 0x0, symName: __ZNSt3__19basic_iosIcNS_11char_traitsIcEEE8setstateB8ue170006Ej, symObjAddr: 0x764, symBinAddr: 0x1000046E8, symSize: 0x2C }
  - { offsetInCU: 0x81A6, offset: 0x81A6, size: 0x8, addend: 0x0, symName: __ZNSt3__18ios_baseC2B8ue170006Ev, symObjAddr: 0x790, symBinAddr: 0x100004714, symSize: 0x24 }
  - { offsetInCU: 0x81CE, offset: 0x81CE, size: 0x8, addend: 0x0, symName: __ZNSt3__19basic_iosIcNS_11char_traitsIcEEE4initB8ue170006EPNS_15basic_streambufIcS2_EE, symObjAddr: 0x7B4, symBinAddr: 0x100004738, symSize: 0x44 }
  - { offsetInCU: 0x8203, offset: 0x8203, size: 0x8, addend: 0x0, symName: __ZNSt3__111char_traitsIcE3eofB8ue170006Ev, symObjAddr: 0x7F8, symBinAddr: 0x10000477C, symSize: 0x8 }
  - { offsetInCU: 0x8216, offset: 0x8216, size: 0x8, addend: 0x0, symName: __ZNSt3__18ios_base8setstateB8ue170006Ej, symObjAddr: 0x800, symBinAddr: 0x100004784, symSize: 0x34 }
  - { offsetInCU: 0x824B, offset: 0x824B, size: 0x8, addend: 0x0, symName: __ZNSt3__112basic_stringIcNS_11char_traitsIcEENS_9allocatorIcEEEC2B8ue170006ILi0EEEPKc, symObjAddr: 0x834, symBinAddr: 0x1000047B8, symSize: 0x58 }
  - { offsetInCU: 0x828D, offset: 0x828D, size: 0x8, addend: 0x0, symName: __ZNSt3__117__compressed_pairINS_12basic_stringIcNS_11char_traitsIcEENS_9allocatorIcEEE5__repES5_EC1B8ue170006INS_18__default_init_tagESA_EEOT_OT0_, symObjAddr: 0x88C, symBinAddr: 0x100004810, symSize: 0x3C }
  - { offsetInCU: 0x82E3, offset: 0x82E3, size: 0x8, addend: 0x0, symName: __ZNSt3__111char_traitsIcE6lengthB8ue170006EPKc, symObjAddr: 0x8C8, symBinAddr: 0x10000484C, symSize: 0x34 }
  - { offsetInCU: 0x8305, offset: 0x8305, size: 0x8, addend: 0x0, symName: __ZNSt3__117__compressed_pairINS_12basic_stringIcNS_11char_traitsIcEENS_9allocatorIcEEE5__repES5_EC2B8ue170006INS_18__default_init_tagESA_EEOT_OT0_, symObjAddr: 0x8FC, symBinAddr: 0x100004880, symSize: 0x3C }
  - { offsetInCU: 0x835B, offset: 0x835B, size: 0x8, addend: 0x0, symName: __ZNSt3__122__compressed_pair_elemINS_12basic_stringIcNS_11char_traitsIcEENS_9allocatorIcEEE5__repELi0ELb0EEC2B8ue170006ENS_18__default_init_tagE, symObjAddr: 0x938, symBinAddr: 0x1000048BC, symSize: 0x14 }
  - { offsetInCU: 0x838D, offset: 0x838D, size: 0x8, addend: 0x0, symName: __ZNSt3__122__compressed_pair_elemINS_9allocatorIcEELi1ELb1EEC2B8ue170006ENS_18__default_init_tagE, symObjAddr: 0x94C, symBinAddr: 0x1000048D0, symSize: 0x2C }
  - { offsetInCU: 0x83BF, offset: 0x83BF, size: 0x8, addend: 0x0, symName: __ZNSt3__19allocatorIcEC2B8ue170006Ev, symObjAddr: 0x978, symBinAddr: 0x1000048FC, symSize: 0x2C }
  - { offsetInCU: 0x83E7, offset: 0x83E7, size: 0x8, addend: 0x0, symName: __ZNSt3__116__non_trivial_ifILb1ENS_9allocatorIcEEEC2B8ue170006Ev, symObjAddr: 0x9A4, symBinAddr: 0x100004928, symSize: 0x14 }
  - { offsetInCU: 0x840F, offset: 0x840F, size: 0x8, addend: 0x0, symName: __ZNKSt3__19basic_iosIcNS_11char_traitsIcEEE5widenB8ue170006Ec, symObjAddr: 0x9E8, symBinAddr: 0x10000496C, symSize: 0x84 }
  - { offsetInCU: 0x847B, offset: 0x847B, size: 0x8, addend: 0x0, symName: __ZNKSt3__15ctypeIcE5widenB8ue170006Ec, symObjAddr: 0xA98, symBinAddr: 0x100004A1C, symSize: 0x38 }
  - { offsetInCU: 0x294B, offset: 0xAE35, size: 0x8, addend: 0x0, symName: __ZNSt3__124__put_character_sequenceB8ue170006IcNS_11char_traitsIcEEEERNS_13basic_ostreamIT_T0_EES7_PKS4_m, symObjAddr: 0x2278, symBinAddr: 0x100006B94, symSize: 0x1EC }
  - { offsetInCU: 0x3F71, offset: 0xC45B, size: 0x8, addend: 0x0, symName: __ZNSt3__1lsB8ue170006IcNS_11char_traitsIcEENS_9allocatorIcEEEERNS_13basic_ostreamIT_T0_EES9_RKNS_12basic_stringIS6_S7_T1_EE, symObjAddr: 0x634, symBinAddr: 0x100005088, symSize: 0x4C }
  - { offsetInCU: 0x3FC9, offset: 0xC4B3, size: 0x8, addend: 0x0, symName: __ZNSt3__13maxB8ue170006IiEERKT_S3_S3_, symObjAddr: 0x1C14, symBinAddr: 0x100006634, symSize: 0x2C }
  - { offsetInCU: 0x400C, offset: 0xC4F6, size: 0x8, addend: 0x0, symName: __ZNSt3__1plB8ue170006IcNS_11char_traitsIcEENS_9allocatorIcEEEENS_12basic_stringIT_T0_T1_EEPKS6_OS9_, symObjAddr: 0x1C40, symBinAddr: 0x100006660, symSize: 0x44 }
  - { offsetInCU: 0x4064, offset: 0xC54E, size: 0x8, addend: 0x0, symName: __ZNSt3__116__pad_and_outputB8ue170006IcNS_11char_traitsIcEEEENS_19ostreambuf_iteratorIT_T0_EES6_PKS4_S8_S8_RNS_8ios_baseES4_, symObjAddr: 0x24FC, symBinAddr: 0x100006E18, symSize: 0x240 }
  - { offsetInCU: 0x4133, offset: 0xC61D, size: 0x8, addend: 0x0, symName: __ZNSt3__112__to_addressB8ue170006IKcEEPT_S3_, symObjAddr: 0x2B20, symBinAddr: 0x1000072EC, symSize: 0x14 }
  - { offsetInCU: 0x419C, offset: 0xC686, size: 0x8, addend: 0x0, symName: __ZNSt3__13maxB8ue170006IiNS_6__lessIvvEEEERKT_S5_S5_T0_, symObjAddr: 0x2D68, symBinAddr: 0x100007484, symSize: 0x54 }
  - { offsetInCU: 0x423D, offset: 0xC727, size: 0x8, addend: 0x0, symName: __ZNSt3__119__libcpp_deallocateB8ue170006EPvmm, symObjAddr: 0x3160, symBinAddr: 0x10000787C, symSize: 0x30 }
  - { offsetInCU: 0x4286, offset: 0xC770, size: 0x8, addend: 0x0, symName: __ZNSt3__127__do_deallocate_handle_sizeB8ue170006IJEEEvPvmDpT_, symObjAddr: 0x3190, symBinAddr: 0x1000078AC, symSize: 0x28 }
  - { offsetInCU: 0x42C6, offset: 0xC7B0, size: 0x8, addend: 0x0, symName: __ZNSt3__124__libcpp_operator_deleteB8ue170006IJPvEEEvDpT_, symObjAddr: 0x31B8, symBinAddr: 0x1000078D4, symSize: 0x24 }
  - { offsetInCU: 0x6400, offset: 0xE8EA, size: 0x8, addend: 0x0, symName: __ZN7MyExcellsERNSt3__113basic_ostreamIcNS0_11char_traitsIcEEEERNS_5TableE, symObjAddr: 0x5B8, symBinAddr: 0x10000500C, symSize: 0x7C }
  - { offsetInCU: 0x66F1, offset: 0xEBDB, size: 0x8, addend: 0x0, symName: __ZN7MyExcel6VectorC2Ei, symObjAddr: 0x0, symBinAddr: 0x100004A54, symSize: 0x100 }
  - { offsetInCU: 0x6729, offset: 0xEC13, size: 0x8, addend: 0x0, symName: __ZNSt3__112basic_stringIcNS_11char_traitsIcEENS_9allocatorIcEEEC1B8ue170006Ev, symObjAddr: 0x100, symBinAddr: 0x100004B54, symSize: 0x2C }
  - { offsetInCU: 0x6751, offset: 0xEC3B, size: 0x8, addend: 0x0, symName: __ZN7MyExcel6VectorC1Ei, symObjAddr: 0x12C, symBinAddr: 0x100004B80, symSize: 0x34 }
  - { offsetInCU: 0x6789, offset: 0xEC73, size: 0x8, addend: 0x0, symName: __ZN7MyExcel6Vector9push_backENSt3__112basic_stringIcNS1_11char_traitsIcEENS1_9allocatorIcEEEE, symObjAddr: 0x160, symBinAddr: 0x100004BB4, symSize: 0x24C }
  - { offsetInCU: 0x67F9, offset: 0xECE3, size: 0x8, addend: 0x0, symName: __ZN7MyExcel6VectorixEi, symObjAddr: 0x3AC, symBinAddr: 0x100004E00, symSize: 0x50 }
  - { offsetInCU: 0x682E, offset: 0xED18, size: 0x8, addend: 0x0, symName: __ZN7MyExcel6Vector6removeEi, symObjAddr: 0x3FC, symBinAddr: 0x100004E50, symSize: 0xA8 }
  - { offsetInCU: 0x6880, offset: 0xED6A, size: 0x8, addend: 0x0, symName: __ZN7MyExcel6Vector4sizeEv, symObjAddr: 0x4A4, symBinAddr: 0x100004EF8, symSize: 0x18 }
  - { offsetInCU: 0x68A7, offset: 0xED91, size: 0x8, addend: 0x0, symName: __ZN7MyExcel6VectorD2Ev, symObjAddr: 0x4BC, symBinAddr: 0x100004F10, symSize: 0xD0 }
  - { offsetInCU: 0x68D1, offset: 0xEDBB, size: 0x8, addend: 0x0, symName: __ZN7MyExcel6VectorD1Ev, symObjAddr: 0x58C, symBinAddr: 0x100004FE0, symSize: 0x2C }
  - { offsetInCU: 0x690A, offset: 0xEDF4, size: 0x8, addend: 0x0, symName: __ZN7MyExcel5StackC2Ev, symObjAddr: 0x680, symBinAddr: 0x1000050D4, symSize: 0x84 }
  - { offsetInCU: 0x6939, offset: 0xEE23, size: 0x8, addend: 0x0, symName: __ZN7MyExcel5Stack4NodeC1EPS1_NSt3__112basic_stringIcNS3_11char_traitsIcEENS3_9allocatorIcEEEE, symObjAddr: 0x738, symBinAddr: 0x100005158, symSize: 0x3C }
  - { offsetInCU: 0x697E, offset: 0xEE68, size: 0x8, addend: 0x0, symName: __ZN7MyExcel5StackC1Ev, symObjAddr: 0x774, symBinAddr: 0x100005194, symSize: 0x2C }
  - { offsetInCU: 0x69A9, offset: 0xEE93, size: 0x8, addend: 0x0, symName: __ZN7MyExcel5Stack4pushENSt3__112basic_stringIcNS1_11char_traitsIcEENS1_9allocatorIcEEEE, symObjAddr: 0x7A0, symBinAddr: 0x1000051C0, symSize: 0xE4 }
  - { offsetInCU: 0x69EB, offset: 0xEED5, size: 0x8, addend: 0x0, symName: __ZN7MyExcel5Stack3popEv, symObjAddr: 0x884, symBinAddr: 0x1000052A4, symSize: 0xF0 }
  - { offsetInCU: 0x6A2F, offset: 0xEF19, size: 0x8, addend: 0x0, symName: __ZN7MyExcel5Stack4NodeD1Ev, symObjAddr: 0x974, symBinAddr: 0x100005394, symSize: 0x2C }
  - { offsetInCU: 0x6A59, offset: 0xEF43, size: 0x8, addend: 0x0, symName: __ZN7MyExcel5Stack4peekEv, symObjAddr: 0x9A0, symBinAddr: 0x1000053C0, symSize: 0x40 }
  - { offsetInCU: 0x6A80, offset: 0xEF6A, size: 0x8, addend: 0x0, symName: __ZN7MyExcel5Stack8is_emptyEv, symObjAddr: 0x9E0, symBinAddr: 0x100005400, symSize: 0x5C }
  - { offsetInCU: 0x6AA7, offset: 0xEF91, size: 0x8, addend: 0x0, symName: __ZN7MyExcel5StackD2Ev, symObjAddr: 0xA3C, symBinAddr: 0x10000545C, symSize: 0xA4 }
  - { offsetInCU: 0x6AEE, offset: 0xEFD8, size: 0x8, addend: 0x0, symName: __ZN7MyExcel5StackD1Ev, symObjAddr: 0xAE0, symBinAddr: 0x100005500, symSize: 0x2C }
  - { offsetInCU: 0x6B36, offset: 0xF020, size: 0x8, addend: 0x0, symName: __ZN7MyExcel5TableC2Eii, symObjAddr: 0xB0C, symBinAddr: 0x10000552C, symSize: 0x144 }
  - { offsetInCU: 0x6BB6, offset: 0xF0A0, size: 0x8, addend: 0x0, symName: __ZN7MyExcel5TableD2Ev, symObjAddr: 0xC50, symBinAddr: 0x100005670, symSize: 0x1AC }
  - { offsetInCU: 0x6C37, offset: 0xF121, size: 0x8, addend: 0x0, symName: __ZN7MyExcel4CellD1Ev, symObjAddr: 0xDFC, symBinAddr: 0x10000581C, symSize: 0x2C }
  - { offsetInCU: 0x6C62, offset: 0xF14C, size: 0x8, addend: 0x0, symName: __ZN7MyExcel5TableD1Ev, symObjAddr: 0xE28, symBinAddr: 0x100005848, symSize: 0x14 }
  - { offsetInCU: 0x6C8C, offset: 0xF176, size: 0x8, addend: 0x0, symName: __ZN7MyExcel5Table8reg_cellEPNS_4CellEii, symObjAddr: 0xE3C, symBinAddr: 0x10000585C, symSize: 0x14C }
  - { offsetInCU: 0x6CDD, offset: 0xF1C7, size: 0x8, addend: 0x0, symName: __ZN7MyExcel5Table10to_numericERKNSt3__112basic_stringIcNS1_11char_traitsIcEENS1_9allocatorIcEEEE, symObjAddr: 0xF88, symBinAddr: 0x1000059A8, symSize: 0xEC }
  - { offsetInCU: 0x6D2F, offset: 0xF219, size: 0x8, addend: 0x0, symName: __ZNKSt3__112basic_stringIcNS_11char_traitsIcEENS_9allocatorIcEEEixB8ue170006Em, symObjAddr: 0x1074, symBinAddr: 0x100005A94, symSize: 0x30 }
  - { offsetInCU: 0x6D62, offset: 0xF24C, size: 0x8, addend: 0x0, symName: __ZNKSt3__112basic_stringIcNS_11char_traitsIcEENS_9allocatorIcEEE5c_strB8ue170006Ev, symObjAddr: 0x10A4, symBinAddr: 0x100005AC4, symSize: 0x24 }
  - { offsetInCU: 0x6D85, offset: 0xF26F, size: 0x8, addend: 0x0, symName: __ZN7MyExcel5Table10to_numericEii, symObjAddr: 0x10C8, symBinAddr: 0x100005AE8, symSize: 0xC0 }
  - { offsetInCU: 0x6DC8, offset: 0xF2B2, size: 0x8, addend: 0x0, symName: __ZN7MyExcel5Table9stringifyEii, symObjAddr: 0x1188, symBinAddr: 0x100005BA8, symSize: 0xD0 }
  - { offsetInCU: 0x6E0B, offset: 0xF2F5, size: 0x8, addend: 0x0, symName: __ZN7MyExcel5Table9stringifyERKNSt3__112basic_stringIcNS1_11char_traitsIcEENS1_9allocatorIcEEEE, symObjAddr: 0x1258, symBinAddr: 0x100005C78, symSize: 0xFC }
  - { offsetInCU: 0x6E5C, offset: 0xF346, size: 0x8, addend: 0x0, symName: __ZN7MyExcel8TxtTableC2Eii, symObjAddr: 0x1354, symBinAddr: 0x100005D74, symSize: 0x54 }
  - { offsetInCU: 0x6EA2, offset: 0xF38C, size: 0x8, addend: 0x0, symName: __ZN7MyExcel8TxtTableC1Eii, symObjAddr: 0x13A8, symBinAddr: 0x100005DC8, symSize: 0x3C }
  - { offsetInCU: 0x6EE8, offset: 0xF3D2, size: 0x8, addend: 0x0, symName: __ZN7MyExcel8TxtTable11print_tableEv, symObjAddr: 0x13E4, symBinAddr: 0x100005E04, symSize: 0x7E0 }
  - { offsetInCU: 0x700D, offset: 0xF4F7, size: 0x8, addend: 0x0, symName: __ZNKSt3__112basic_stringIcNS_11char_traitsIcEENS_9allocatorIcEEE6lengthB8ue170006Ev, symObjAddr: 0x1BC4, symBinAddr: 0x1000065E4, symSize: 0x24 }
  - { offsetInCU: 0x7031, offset: 0xF51B, size: 0x8, addend: 0x0, symName: __ZNSt3__112basic_stringIcNS_11char_traitsIcEENS_9allocatorIcEEEpLB8ue170006EPKc, symObjAddr: 0x1BE8, symBinAddr: 0x100006608, symSize: 0x2C }
  - { offsetInCU: 0x7063, offset: 0xF54D, size: 0x8, addend: 0x0, symName: __ZN7MyExcel8TxtTable14col_num_to_strEi, symObjAddr: 0x1C84, symBinAddr: 0x1000066A4, symSize: 0x124 }
  - { offsetInCU: 0x70D3, offset: 0xF5BD, size: 0x8, addend: 0x0, symName: __ZNSt3__112basic_stringIcNS_11char_traitsIcEENS_9allocatorIcEEEpLB8ue170006ERKS5_, symObjAddr: 0x1DA8, symBinAddr: 0x1000067C8, symSize: 0x2C }
  - { offsetInCU: 0x7105, offset: 0xF5EF, size: 0x8, addend: 0x0, symName: __ZN7MyExcel8TxtTable11repeat_charEic, symObjAddr: 0x1DD4, symBinAddr: 0x1000067F4, symSize: 0xE8 }
  - { offsetInCU: 0x7175, offset: 0xF65F, size: 0x8, addend: 0x0, symName: __ZNSt3__112basic_stringIcNS_11char_traitsIcEENS_9allocatorIcEEEaSB8ue170006EOS5_, symObjAddr: 0x1EBC, symBinAddr: 0x1000068DC, symSize: 0x34 }
  - { offsetInCU: 0x71A7, offset: 0xF691, size: 0x8, addend: 0x0, symName: __ZN7MyExcel4CellC2ENSt3__112basic_stringIcNS1_11char_traitsIcEENS1_9allocatorIcEEEEiiPNS_5TableE, symObjAddr: 0x1EF0, symBinAddr: 0x100006910, symSize: 0x6C }
  - { offsetInCU: 0x720A, offset: 0xF6F4, size: 0x8, addend: 0x0, symName: __ZN7MyExcel4CellC1ENSt3__112basic_stringIcNS1_11char_traitsIcEENS1_9allocatorIcEEEEiiPNS_5TableE, symObjAddr: 0x1F5C, symBinAddr: 0x10000697C, symSize: 0x4C }
  - { offsetInCU: 0x726D, offset: 0xF757, size: 0x8, addend: 0x0, symName: __ZN7MyExcel4Cell9stringifyEv, symObjAddr: 0x1FA8, symBinAddr: 0x1000069C8, symSize: 0x3C }
  - { offsetInCU: 0x7294, offset: 0xF77E, size: 0x8, addend: 0x0, symName: __ZN7MyExcel4Cell10to_numericEv, symObjAddr: 0x1FE4, symBinAddr: 0x100006A04, symSize: 0x14 }
  - { offsetInCU: 0x72BB, offset: 0xF7A5, size: 0x8, addend: 0x0, symName: __ZN7MyExcel5Stack4NodeC2EPS1_NSt3__112basic_stringIcNS3_11char_traitsIcEENS3_9allocatorIcEEEE, symObjAddr: 0x1FF8, symBinAddr: 0x100006A18, symSize: 0x4C }
  - { offsetInCU: 0x7300, offset: 0xF7EA, size: 0x8, addend: 0x0, symName: __ZN7MyExcel5Stack4NodeD2Ev, symObjAddr: 0x2044, symBinAddr: 0x100006A64, symSize: 0x30 }
  - { offsetInCU: 0x732A, offset: 0xF814, size: 0x8, addend: 0x0, symName: __ZN7MyExcel4CellD2Ev, symObjAddr: 0x2074, symBinAddr: 0x100006A94, symSize: 0x40 }
  - { offsetInCU: 0x7354, offset: 0xF83E, size: 0x8, addend: 0x0, symName: __ZNSt3__112basic_stringIcNS_11char_traitsIcEENS_9allocatorIcEEEC2B8ue170006Ev, symObjAddr: 0x20B4, symBinAddr: 0x100006AD4, symSize: 0x48 }
  - { offsetInCU: 0x737D, offset: 0xF867, size: 0x8, addend: 0x0, symName: __ZNSt3__112basic_stringIcNS_11char_traitsIcEENS_9allocatorIcEEE14__default_initB8ue170006Ev, symObjAddr: 0x2144, symBinAddr: 0x100006B1C, symSize: 0x40 }
  - { offsetInCU: 0x73A1, offset: 0xF88B, size: 0x8, addend: 0x0, symName: __ZNSt3__117__compressed_pairINS_12basic_stringIcNS_11char_traitsIcEENS_9allocatorIcEEE5__repES5_E5firstB8ue170006Ev, symObjAddr: 0x2240, symBinAddr: 0x100006B5C, symSize: 0x24 }
  - { offsetInCU: 0x73C5, offset: 0xF8AF, size: 0x8, addend: 0x0, symName: __ZNSt3__122__compressed_pair_elemINS_12basic_stringIcNS_11char_traitsIcEENS_9allocatorIcEEE5__repELi0ELb0EE5__getB8ue170006Ev, symObjAddr: 0x2264, symBinAddr: 0x100006B80, symSize: 0x14 }
  - { offsetInCU: 0x73EA, offset: 0xF8D4, size: 0x8, addend: 0x0, symName: __ZNKSt3__112basic_stringIcNS_11char_traitsIcEENS_9allocatorIcEEE4dataB8ue170006Ev, symObjAddr: 0x2464, symBinAddr: 0x100006D80, symSize: 0x28 }
  - { offsetInCU: 0x740E, offset: 0xF8F8, size: 0x8, addend: 0x0, symName: __ZNKSt3__112basic_stringIcNS_11char_traitsIcEENS_9allocatorIcEEE4sizeB8ue170006Ev, symObjAddr: 0x248C, symBinAddr: 0x100006DA8, symSize: 0x54 }
  - { offsetInCU: 0x7450, offset: 0xF93A, size: 0x8, addend: 0x0, symName: __ZNKSt3__113basic_ostreamIcNS_11char_traitsIcEEE6sentrycvbB8ue170006Ev, symObjAddr: 0x24E0, symBinAddr: 0x100006DFC, symSize: 0x1C }
  - { offsetInCU: 0x7474, offset: 0xF95E, size: 0x8, addend: 0x0, symName: __ZNSt3__119ostreambuf_iteratorIcNS_11char_traitsIcEEEC1B8ue170006ERNS_13basic_ostreamIcS2_EE, symObjAddr: 0x273C, symBinAddr: 0x100007058, symSize: 0x34 }
  - { offsetInCU: 0x74AB, offset: 0xF995, size: 0x8, addend: 0x0, symName: __ZNKSt3__18ios_base5flagsB8ue170006Ev, symObjAddr: 0x2770, symBinAddr: 0x10000708C, symSize: 0x18 }
  - { offsetInCU: 0x74D2, offset: 0xF9BC, size: 0x8, addend: 0x0, symName: __ZNKSt3__19basic_iosIcNS_11char_traitsIcEEE4fillB8ue170006Ev, symObjAddr: 0x2788, symBinAddr: 0x1000070A4, symSize: 0x64 }
  - { offsetInCU: 0x74F8, offset: 0xF9E2, size: 0x8, addend: 0x0, symName: __ZNKSt3__119ostreambuf_iteratorIcNS_11char_traitsIcEEE6failedB8ue170006Ev, symObjAddr: 0x27EC, symBinAddr: 0x100007108, symSize: 0x24 }
  - { offsetInCU: 0x751D, offset: 0xFA07, size: 0x8, addend: 0x0, symName: __ZNKSt3__18ios_base5widthB8ue170006Ev, symObjAddr: 0x283C, symBinAddr: 0x10000712C, symSize: 0x18 }
  - { offsetInCU: 0x7544, offset: 0xFA2E, size: 0x8, addend: 0x0, symName: __ZNSt3__115basic_streambufIcNS_11char_traitsIcEEE5sputnB8ue170006EPKcl, symObjAddr: 0x2854, symBinAddr: 0x100007144, symSize: 0x3C }
  - { offsetInCU: 0x7583, offset: 0xFA6D, size: 0x8, addend: 0x0, symName: __ZNSt3__112basic_stringIcNS_11char_traitsIcEENS_9allocatorIcEEEC1B8ue170006Emc, symObjAddr: 0x2890, symBinAddr: 0x100007180, symSize: 0x3C }
  - { offsetInCU: 0x75CA, offset: 0xFAB4, size: 0x8, addend: 0x0, symName: __ZNSt3__18ios_base5widthB8ue170006El, symObjAddr: 0x28CC, symBinAddr: 0x1000071BC, symSize: 0x2C }
  - { offsetInCU: 0x760E, offset: 0xFAF8, size: 0x8, addend: 0x0, symName: __ZNSt3__112basic_stringIcNS_11char_traitsIcEENS_9allocatorIcEEEC2B8ue170006Emc, symObjAddr: 0x28F8, symBinAddr: 0x1000071E8, symSize: 0x4C }
  - { offsetInCU: 0x7654, offset: 0xFB3E, size: 0x8, addend: 0x0, symName: __ZNSt3__119ostreambuf_iteratorIcNS_11char_traitsIcEEEC2B8ue170006ERNS_13basic_ostreamIcS2_EE, symObjAddr: 0x2944, symBinAddr: 0x100007234, symSize: 0x54 }
  - { offsetInCU: 0x768B, offset: 0xFB75, size: 0x8, addend: 0x0, symName: __ZNKSt3__19basic_iosIcNS_11char_traitsIcEEE5rdbufB8ue170006Ev, symObjAddr: 0x2998, symBinAddr: 0x100007288, symSize: 0x24 }
  - { offsetInCU: 0x76B1, offset: 0xFB9B, size: 0x8, addend: 0x0, symName: __ZNKSt3__18ios_base5rdbufB8ue170006Ev, symObjAddr: 0x29BC, symBinAddr: 0x1000072AC, symSize: 0x18 }
  - { offsetInCU: 0x76D6, offset: 0xFBC0, size: 0x8, addend: 0x0, symName: __ZNSt3__111char_traitsIcE11eq_int_typeB8ue170006Eii, symObjAddr: 0x29D4, symBinAddr: 0x1000072C4, symSize: 0x28 }
  - { offsetInCU: 0x7709, offset: 0xFBF3, size: 0x8, addend: 0x0, symName: __ZNKSt3__112basic_stringIcNS_11char_traitsIcEENS_9allocatorIcEEE13__get_pointerB8ue170006Ev, symObjAddr: 0x2B34, symBinAddr: 0x100007300, symSize: 0x54 }
  - { offsetInCU: 0x772D, offset: 0xFC17, size: 0x8, addend: 0x0, symName: __ZNKSt3__112basic_stringIcNS_11char_traitsIcEENS_9allocatorIcEEE9__is_longB8ue170006Ev, symObjAddr: 0x2B88, symBinAddr: 0x100007354, symSize: 0x38 }
  - { offsetInCU: 0x7751, offset: 0xFC3B, size: 0x8, addend: 0x0, symName: __ZNKSt3__112basic_stringIcNS_11char_traitsIcEENS_9allocatorIcEEE18__get_long_pointerB8ue170006Ev, symObjAddr: 0x2BC0, symBinAddr: 0x10000738C, symSize: 0x28 }
  - { offsetInCU: 0x7775, offset: 0xFC5F, size: 0x8, addend: 0x0, symName: __ZNKSt3__112basic_stringIcNS_11char_traitsIcEENS_9allocatorIcEEE19__get_short_pointerB8ue170006Ev, symObjAddr: 0x2BE8, symBinAddr: 0x1000073B4, symSize: 0x28 }
  - { offsetInCU: 0x7799, offset: 0xFC83, size: 0x8, addend: 0x0, symName: __ZNKSt3__117__compressed_pairINS_12basic_stringIcNS_11char_traitsIcEENS_9allocatorIcEEE5__repES5_E5firstB8ue170006Ev, symObjAddr: 0x2C10, symBinAddr: 0x1000073DC, symSize: 0x24 }
  - { offsetInCU: 0x77BD, offset: 0xFCA7, size: 0x8, addend: 0x0, symName: __ZNKSt3__122__compressed_pair_elemINS_12basic_stringIcNS_11char_traitsIcEENS_9allocatorIcEEE5__repELi0ELb0EE5__getB8ue170006Ev, symObjAddr: 0x2C34, symBinAddr: 0x100007400, symSize: 0x14 }
  - { offsetInCU: 0x77E2, offset: 0xFCCC, size: 0x8, addend: 0x0, symName: __ZNSt3__114pointer_traitsIPKcE10pointer_toB8ue170006ERS1_, symObjAddr: 0x2C48, symBinAddr: 0x100007414, symSize: 0x14 }
  - { offsetInCU: 0x7805, offset: 0xFCEF, size: 0x8, addend: 0x0, symName: __ZNKSt3__112basic_stringIcNS_11char_traitsIcEENS_9allocatorIcEEE15__get_long_sizeB8ue170006Ev, symObjAddr: 0x2C5C, symBinAddr: 0x100007428, symSize: 0x28 }
  - { offsetInCU: 0x7829, offset: 0xFD13, size: 0x8, addend: 0x0, symName: __ZNKSt3__112basic_stringIcNS_11char_traitsIcEENS_9allocatorIcEEE16__get_short_sizeB8ue170006Ev, symObjAddr: 0x2C84, symBinAddr: 0x100007450, symSize: 0x34 }
  - { offsetInCU: 0x7861, offset: 0xFD4B, size: 0x8, addend: 0x0, symName: __ZNKSt3__16__lessIvvEclB8ue170006IiiEEbRKT_RKT0_, symObjAddr: 0x2DBC, symBinAddr: 0x1000074D8, symSize: 0x34 }
  - { offsetInCU: 0x78B3, offset: 0xFD9D, size: 0x8, addend: 0x0, symName: __ZNSt3__112basic_stringIcNS_11char_traitsIcEENS_9allocatorIcEEEC1B8ue170006EOS5_, symObjAddr: 0x2DF0, symBinAddr: 0x10000750C, symSize: 0x34 }
  - { offsetInCU: 0x78EA, offset: 0xFDD4, size: 0x8, addend: 0x0, symName: __ZNSt3__112basic_stringIcNS_11char_traitsIcEENS_9allocatorIcEEEC2B8ue170006EOS5_, symObjAddr: 0x2E24, symBinAddr: 0x100007540, symSize: 0x48 }
  - { offsetInCU: 0x7922, offset: 0xFE0C, size: 0x8, addend: 0x0, symName: __ZNSt3__112basic_stringIcNS_11char_traitsIcEENS_9allocatorIcEEE6appendB8ue170006ERKS5_, symObjAddr: 0x2E6C, symBinAddr: 0x100007588, symSize: 0x4C }
  - { offsetInCU: 0x7955, offset: 0xFE3F, size: 0x8, addend: 0x0, symName: __ZNSt3__112basic_stringIcNS_11char_traitsIcEENS_9allocatorIcEEE13__move_assignB8ue170006ERS5_NS_17integral_constantIbLb1EEE, symObjAddr: 0x2EB8, symBinAddr: 0x1000075D4, symSize: 0xC8 }
  - { offsetInCU: 0x7996, offset: 0xFE80, size: 0x8, addend: 0x0, symName: __ZNSt3__116allocator_traitsINS_9allocatorIcEEE10deallocateB8ue170006ERS2_Pcm, symObjAddr: 0x2F80, symBinAddr: 0x10000769C, symSize: 0x34 }
  - { offsetInCU: 0x79D7, offset: 0xFEC1, size: 0x8, addend: 0x0, symName: __ZNSt3__112basic_stringIcNS_11char_traitsIcEENS_9allocatorIcEEE7__allocB8ue170006Ev, symObjAddr: 0x2FB4, symBinAddr: 0x1000076D0, symSize: 0x24 }
  - { offsetInCU: 0x79FB, offset: 0xFEE5, size: 0x8, addend: 0x0, symName: __ZNSt3__112basic_stringIcNS_11char_traitsIcEENS_9allocatorIcEEE18__get_long_pointerB8ue170006Ev, symObjAddr: 0x2FD8, symBinAddr: 0x1000076F4, symSize: 0x28 }
  - { offsetInCU: 0x7A1F, offset: 0xFF09, size: 0x8, addend: 0x0, symName: __ZNKSt3__112basic_stringIcNS_11char_traitsIcEENS_9allocatorIcEEE14__get_long_capB8ue170006Ev, symObjAddr: 0x3000, symBinAddr: 0x10000771C, symSize: 0x30 }
  - { offsetInCU: 0x7A43, offset: 0xFF2D, size: 0x8, addend: 0x0, symName: __ZNSt3__112basic_stringIcNS_11char_traitsIcEENS_9allocatorIcEEE19__move_assign_allocB8ue170006ERS5_, symObjAddr: 0x3030, symBinAddr: 0x10000774C, symSize: 0x2C }
  - { offsetInCU: 0x7A76, offset: 0xFF60, size: 0x8, addend: 0x0, symName: __ZNSt3__112basic_stringIcNS_11char_traitsIcEENS_9allocatorIcEEE16__set_short_sizeB8ue170006Em, symObjAddr: 0x305C, symBinAddr: 0x100007778, symSize: 0x78 }
  - { offsetInCU: 0x7AA9, offset: 0xFF93, size: 0x8, addend: 0x0, symName: __ZNSt3__111char_traitsIcE6assignB8ue170006ERcRKc, symObjAddr: 0x30D4, symBinAddr: 0x1000077F0, symSize: 0x24 }
  - { offsetInCU: 0x7ADA, offset: 0xFFC4, size: 0x8, addend: 0x0, symName: __ZNSt3__112basic_stringIcNS_11char_traitsIcEENS_9allocatorIcEEE19__get_short_pointerB8ue170006Ev, symObjAddr: 0x30F8, symBinAddr: 0x100007814, symSize: 0x28 }
  - { offsetInCU: 0x7AFE, offset: 0xFFE8, size: 0x8, addend: 0x0, symName: __ZNSt3__19allocatorIcE10deallocateB8ue170006EPcm, symObjAddr: 0x3120, symBinAddr: 0x10000783C, symSize: 0x40 }
  - { offsetInCU: 0x7B3E, offset: 0x10028, size: 0x8, addend: 0x0, symName: __ZNSt3__117__compressed_pairINS_12basic_stringIcNS_11char_traitsIcEENS_9allocatorIcEEE5__repES5_E6secondB8ue170006Ev, symObjAddr: 0x31DC, symBinAddr: 0x1000078F8, symSize: 0x24 }
  - { offsetInCU: 0x7B62, offset: 0x1004C, size: 0x8, addend: 0x0, symName: __ZNSt3__122__compressed_pair_elemINS_9allocatorIcEELi1ELb1EE5__getB8ue170006Ev, symObjAddr: 0x3200, symBinAddr: 0x10000791C, symSize: 0x14 }
  - { offsetInCU: 0x7B87, offset: 0x10071, size: 0x8, addend: 0x0, symName: __ZNSt3__112basic_stringIcNS_11char_traitsIcEENS_9allocatorIcEEE19__move_assign_allocB8ue170006ERS5_NS_17integral_constantIbLb1EEE, symObjAddr: 0x3214, symBinAddr: 0x100007930, symSize: 0x38 }
  - { offsetInCU: 0x7BC6, offset: 0x100B0, size: 0x8, addend: 0x0, symName: __ZNSt3__114pointer_traitsIPcE10pointer_toB8ue170006ERc, symObjAddr: 0x324C, symBinAddr: 0x100007968, symSize: 0x14 }
...
